; Function Attrs: nounwind uwtable
define ptr @l_Lean_LocalContext_mkBinding___boxed(ptr noundef %0, ptr noundef %1, ptr noundef %2, ptr noundef %3) local_unnamed_addr #2 {
  %5 = ptrtoint ptr %0 to i64
  %6 = and i64 %5, 1
  %.not = icmp eq i64 %6, 0
  br i1 %.not, label %7, label %lean_dec.exit7

7:                                                ; preds = %4
  %8 = load i32, ptr %0, align 4, !tbaa !4
  %9 = icmp sgt i32 %8, 1
  br i1 %9, label %10, label %12, !prof !11

10:                                               ; preds = %7
  %11 = add nsw i32 %8, -1
  store i32 %11, ptr %0, align 4, !tbaa !4
  br label %lean_dec.exit7

12:                                               ; preds = %7
  %.not.i = icmp eq i32 %8, 0
  br i1 %.not.i, label %lean_dec.exit7, label %13

13:                                               ; preds = %12
  tail call void @lean_dec_ref_cold(ptr noundef nonnull %0) #8
  br label %lean_dec.exit7

lean_dec.exit7:                                   ; preds = %13, %12, %10, %4
  %14 = tail call ptr @lean_expr_abstract(ptr noundef %3, ptr noundef %2) #8
  %15 = getelementptr i8, ptr %2, i64 8
  %.val.i = load i64, ptr %15, align 8, !tbaa !12
  tail call void @lean_inc_heartbeat() #8
  %16 = tail call noalias ptr @mi_malloc_small(i64 noundef 48) #8
  %17 = icmp eq ptr %16, null
  br i1 %17, label %18, label %l_Lean_LocalContext_mkBinding.exit

18:                                               ; preds = %lean_dec.exit7
  tail call void @lean_internal_panic_out_of_memory() #9
  unreachable

l_Lean_LocalContext_mkBinding.exit:               ; preds = %lean_dec.exit7
  %19 = and i64 %5, 510
  %20 = or disjoint i64 %19, 1
  %21 = inttoptr i64 %20 to ptr
  %22 = shl i64 %.val.i, 1
  %23 = or disjoint i64 %22, 1
  %24 = inttoptr i64 %23 to ptr
  %25 = getelementptr inbounds nuw i8, ptr %16, i64 4
  store i32 1, ptr %16, align 4, !tbaa !4
  store i32 -184549328, ptr %25, align 4
  %26 = getelementptr inbounds nuw i8, ptr %16, i64 8
  store ptr @l_Lean_LocalContext_mkBinding___lambda__1___boxed, ptr %26, align 8, !tbaa !9
  %27 = getelementptr inbounds nuw i8, ptr %16, i64 16
  store i16 6, ptr %27, align 8, !tbaa !14
  %28 = getelementptr inbounds nuw i8, ptr %16, i64 18
  store i16 3, ptr %28, align 2, !tbaa !14
  %29 = getelementptr inbounds nuw i8, ptr %16, i64 24
  store ptr %2, ptr %29, align 8, !tbaa !9
  %30 = getelementptr inbounds nuw i8, ptr %16, i64 32
  store ptr %1, ptr %30, align 8, !tbaa !9
  %31 = getelementptr inbounds nuw i8, ptr %16, i64 40
  store ptr %21, ptr %31, align 8, !tbaa !9
  %32 = tail call ptr @l_Nat_foldRev___rarg(ptr noundef nonnull %24, ptr noundef nonnull %16, ptr noundef %14) #8
  %33 = ptrtoint ptr %3 to i64
  %34 = and i64 %33, 1
  %.not10 = icmp eq i64 %34, 0
  br i1 %.not10, label %35, label %lean_dec.exit

35:                                               ; preds = %l_Lean_LocalContext_mkBinding.exit
  %36 = load i32, ptr %3, align 4, !tbaa !4
  %37 = icmp sgt i32 %36, 1
  br i1 %37, label %38, label %40, !prof !11

38:                                               ; preds = %35
  %39 = add nsw i32 %36, -1
  store i32 %39, ptr %3, align 4, !tbaa !4
  br label %lean_dec.exit

40:                                               ; preds = %35
  %.not.i8 = icmp eq i32 %36, 0
  br i1 %.not.i8, label %lean_dec.exit, label %41

41:                                               ; preds = %40
  tail call void @lean_dec_ref_cold(ptr noundef nonnull %3) #8
  br label %lean_dec.exit

lean_dec.exit:                                    ; preds = %41, %40, %38, %l_Lean_LocalContext_mkBinding.exit
  ret ptr %32
}